; Function Attrs: noreturn nounwind uwtable
define hidden noundef i32 @main(i32 noundef %0, ptr noundef readonly %1) local_unnamed_addr #0 {
  %3 = alloca [4097 x i8], align 16
  %4 = alloca [4097 x i8], align 16
  %5 = icmp slt i32 %0, 1
  %6 = icmp eq ptr %1, null
  %or.cond = or i1 %5, %6
  br i1 %or.cond, label %7, label %9

7:                                                ; preds = %2
  %8 = tail call ptr @__errno_location() #14
  store i32 8, ptr %8, align 4
  tail call void @perror(ptr noundef nonnull @.str.1) #15
  tail call void @exit(i32 noundef 1) #16
  unreachable

9:                                                ; preds = %2
  %10 = load ptr, ptr %1, align 8
  %11 = call ptr @realpath(ptr noundef readonly %10, ptr noundef nonnull %3) #17
  %.not.i = icmp eq ptr %11, null
  br i1 %.not.i, label %getJavaPath.exit, label %.lr.ph.i

.lr.ph.i:                                         ; preds = %9, %.lr.ph.i
  %.08.i = phi i32 [ %13, %.lr.ph.i ], [ 0, %9 ]
  %12 = call ptr @strrchr(ptr noundef nonnull dereferenceable(1) %3, i32 noundef 47) #18
  store i8 0, ptr %12, align 1
  %13 = add nuw nsw i32 %.08.i, 1
  %exitcond.not.i = icmp eq i32 %13, 2
  br i1 %exitcond.not.i, label %.critedge.sink.split, label %.lr.ph.i, !llvm.loop !6

getJavaPath.exit:                                 ; preds = %9
  %14 = tail call ptr @__errno_location() #14
  %15 = load i32, ptr %14, align 4
  %.not = icmp eq i32 %15, 0
  br i1 %.not, label %.critedge, label %16

16:                                               ; preds = %getJavaPath.exit
  %17 = call ptr @realpath(ptr noundef nonnull readonly @.str, ptr noundef nonnull %3) #17
  %.not.i43 = icmp eq ptr %17, null
  br i1 %.not.i43, label %getJavaPath.exit52, label %.lr.ph.i45

.lr.ph.i45:                                       ; preds = %16, %.lr.ph.i45
  %.08.i46 = phi i32 [ %19, %.lr.ph.i45 ], [ 0, %16 ]
  %18 = call ptr @strrchr(ptr noundef nonnull dereferenceable(1) %3, i32 noundef 47) #18
  store i8 0, ptr %18, align 1
  %19 = add nuw nsw i32 %.08.i46, 1
  %exitcond.not.i47 = icmp eq i32 %19, 2
  br i1 %exitcond.not.i47, label %.critedge.sink.split, label %.lr.ph.i45, !llvm.loop !6

getJavaPath.exit52:                               ; preds = %16
  %20 = load i32, ptr %14, align 4
  %21 = icmp eq i32 %20, 0
  br i1 %21, label %.critedge, label %22

22:                                               ; preds = %getJavaPath.exit52
  call void @perror(ptr noundef nonnull @.str.2) #15
  call void @exit(i32 noundef 1) #16
  unreachable

.critedge.sink.split:                             ; preds = %.lr.ph.i, %.lr.ph.i45
  %strlen.i49 = call i64 @strlen(ptr noundef nonnull dereferenceable(1) %3)
  %endptr.i50 = getelementptr inbounds i8, ptr %3, i64 %strlen.i49
  call void @llvm.memcpy.p0.p0.i64(ptr noundef nonnull align 1 dereferenceable(10) %endptr.i50, ptr noundef nonnull align 1 dereferenceable(10) @.str.9, i64 10, i1 false)
  br label %.critedge

.critedge:                                        ; preds = %.critedge.sink.split, %getJavaPath.exit, %getJavaPath.exit52
  %23 = icmp ugt i32 %0, 33554429
  br i1 %23, label %24, label %31

24:                                               ; preds = %.critedge
  %25 = tail call ptr @__errno_location() #14
  %26 = load i32, ptr %25, align 4
  %.not.i55 = icmp eq i32 %26, 0
  br i1 %.not.i55, label %28, label %27

27:                                               ; preds = %24
  call void @perror(ptr noundef nonnull @.str.3) #15
  br label %28

28:                                               ; preds = %27, %24
  %29 = icmp ne i32 %26, 0
  %30 = zext i1 %29 to i32
  call void @exit(i32 noundef %30) #16
  unreachable

31:                                               ; preds = %.critedge
  %32 = shl nuw nsw i32 %0, 3
  %33 = add nuw nsw i32 %32, 16
  %34 = zext nneg i32 %33 to i64
  %35 = call noalias ptr @malloc(i64 noundef %34) #19
  %36 = icmp eq ptr %35, null
  br i1 %36, label %37, label %44

37:                                               ; preds = %31
  %38 = tail call ptr @__errno_location() #14
  %39 = load i32, ptr %38, align 4
  %.not.i57 = icmp eq i32 %39, 0
  br i1 %.not.i57, label %41, label %40

40:                                               ; preds = %37
  call void @perror(ptr noundef nonnull @.str.4) #15
  br label %41

41:                                               ; preds = %40, %37
  %42 = icmp ne i32 %39, 0
  %43 = zext i1 %42 to i32
  call void @exit(i32 noundef %43) #16
  unreachable

44:                                               ; preds = %31
  store ptr %3, ptr %35, align 8
  %45 = getelementptr inbounds i8, ptr %35, i64 8
  store ptr @.str.5, ptr %45, align 8
  %46 = icmp ugt i32 %0, 1
  br i1 %46, label %47, label %70

47:                                               ; preds = %44
  %48 = getelementptr inbounds i8, ptr %1, i64 8
  %49 = load ptr, ptr %48, align 8
  %50 = call ptr @realpath(ptr noundef %49, ptr noundef nonnull %4) #17
  %51 = icmp eq ptr %50, null
  br i1 %51, label %52, label %59

52:                                               ; preds = %47
  %53 = tail call ptr @__errno_location() #14
  %54 = load i32, ptr %53, align 4
  %.not.i59 = icmp eq i32 %54, 0
  br i1 %.not.i59, label %56, label %55

55:                                               ; preds = %52
  call void @perror(ptr noundef nonnull @.str.6) #15
  br label %56

56:                                               ; preds = %55, %52
  %57 = icmp ne i32 %54, 0
  %58 = zext i1 %57 to i32
  call void @exit(i32 noundef %58) #16
  unreachable

59:                                               ; preds = %47
  %60 = call ptr @isJar(ptr noundef nonnull %4)
  %.not42 = icmp eq ptr %60, null
  br i1 %.not42, label %68, label %61

61:                                               ; preds = %59
  %62 = tail call ptr @__errno_location() #14
  %63 = load i32, ptr %62, align 4
  %.not.i61 = icmp eq i32 %63, 0
  br i1 %.not.i61, label %65, label %64

64:                                               ; preds = %61
  call void @perror(ptr noundef nonnull %60) #15
  br label %65

65:                                               ; preds = %64, %61
  %66 = icmp ne i32 %63, 0
  %67 = zext i1 %66 to i32
  call void @exit(i32 noundef %67) #16
  unreachable

68:                                               ; preds = %59
  %69 = getelementptr inbounds i8, ptr %35, i64 16
  store ptr %4, ptr %69, align 8
  br label %70

70:                                               ; preds = %68, %44
  %.037 = phi i32 [ 3, %68 ], [ 2, %44 ]
  %.036 = phi i32 [ 2, %68 ], [ 1, %44 ]
  %71 = icmp ult i32 %.036, %0
  %72 = zext nneg i32 %.037 to i64
  br i1 %71, label %.lr.ph.preheader, label %._crit_edge

.lr.ph.preheader:                                 ; preds = %70
  %73 = shl nuw nsw i64 %72, 3
  %scevgep = getelementptr i8, ptr %35, i64 %73
  %74 = shl nuw nsw i32 %.036, 3
  %75 = zext nneg i32 %74 to i64
  %scevgep71 = getelementptr i8, ptr %1, i64 %75
  %76 = xor i32 %.036, -1
  %77 = add nsw i32 %76, %0
  %78 = zext i32 %77 to i64
  %79 = shl nuw nsw i64 %78, 3
  %80 = add nuw nsw i64 %79, 8
  call void @llvm.memcpy.p0.p0.i64(ptr noundef nonnull align 8 dereferenceable(1) %scevgep, ptr noundef nonnull align 8 dereferenceable(1) %scevgep71, i64 %80, i1 false)
  %81 = add nuw nsw i32 %.037, %0
  %82 = sub nuw nsw i32 %81, %.036
  %wide.trip.count = zext nneg i32 %82 to i64
  br label %._crit_edge

._crit_edge:                                      ; preds = %.lr.ph.preheader, %70
  %.pre-phi = phi i64 [ %72, %70 ], [ %wide.trip.count, %.lr.ph.preheader ]
  %83 = getelementptr inbounds ptr, ptr %35, i64 %.pre-phi
  store ptr null, ptr %83, align 8
  %84 = call i32 @execv(ptr noundef nonnull %3, ptr noundef nonnull %35) #17
  call void @free(ptr noundef nonnull %35) #17
  %85 = tail call ptr @__errno_location() #14
  %86 = load i32, ptr %85, align 4
  %.not.i63 = icmp eq i32 %86, 0
  br i1 %.not.i63, label %88, label %87

87:                                               ; preds = %._crit_edge
  call void @perror(ptr noundef nonnull @.str.7) #15
  br label %88

88:                                               ; preds = %87, %._crit_edge
  %89 = icmp ne i32 %86, 0
  %90 = zext i1 %89 to i32
  call void @exit(i32 noundef %90) #16
  unreachable
}